; Function Attrs: nounwind uwtable
define range(i32 0, 2) i32 @stbi__gif_test(ptr noundef %0) local_unnamed_addr #2 {
  %2 = tail call i32 @stbi__gif_test_raw(ptr noundef %0)
  %3 = getelementptr inbounds nuw i8, ptr %0, i64 208
  %4 = load ptr, ptr %3, align 8, !tbaa !13
  %5 = getelementptr inbounds nuw i8, ptr %0, i64 192
  store ptr %4, ptr %5, align 8, !tbaa !14
  %6 = getelementptr inbounds nuw i8, ptr %0, i64 216
  %7 = load ptr, ptr %6, align 8, !tbaa !15
  %8 = getelementptr inbounds nuw i8, ptr %0, i64 200
  store ptr %7, ptr %8, align 8, !tbaa !16
  ret i32 %2
}